; Function Attrs: nounwind uwtable
define void @Cudd_SetLooseUpTo(ptr noundef writeonly captures(none) initializes((268, 272)) %0, i32 noundef %1) local_unnamed_addr #0 {
  %3 = icmp eq i32 %1, 0
  br i1 %3, label %4, label %9

4:                                                ; preds = %2
  %5 = tail call i32 (...) @Extra_GetSoftDataLimit() #20
  %6 = sext i32 %5 to i64
  %7 = udiv i64 %6, 200
  %8 = trunc i64 %7 to i32
  br label %9

9:                                                ; preds = %4, %2
  %.0 = phi i32 [ %8, %4 ], [ %1, %2 ]
  %10 = getelementptr inbounds nuw i8, ptr %0, i64 268
  store i32 %.0, ptr %10, align 4
  ret void
}